target datalayout = "e-m:e-p270:32:32-p271:32:32-p272:64:64-i64:64-i128:128-f80:128-n8:16:32:64-S128"
target triple = "x86_64-unknown-linux-gnu"

%"class.arrow::io::StdoutStream" = type { %"class.arrow::io::OutputStream.base", i64, %"class.arrow::io::FileInterface.base" }
%"class.arrow::io::OutputStream.base" = type { %"class.arrow::io::Writable" }
%"class.arrow::io::Writable" = type { ptr }
%"class.arrow::io::FileInterface.base" = type <{ ptr, %"class.std::enable_shared_from_this", i32 }>
%"class.std::enable_shared_from_this" = type { %"class.std::weak_ptr" }
%"class.std::weak_ptr" = type { %"class.std::__weak_ptr" }
%"class.std::__weak_ptr" = type { ptr, %"class.std::__weak_count" }
%"class.std::__weak_count" = type { ptr }
%"class.arrow::io::FileInterface" = type <{ ptr, %"class.std::enable_shared_from_this", i32, [4 x i8] }>

@_ZTVN5arrow2io8WritableE = external unnamed_addr constant { [7 x ptr] }, align 8

; Function Attrs: mustprogress nounwind uwtable
define linkonce_odr void @_ZN5arrow2io8WritableD2Ev(ptr noundef nonnull align 8 dereferenceable(8) %this) unnamed_addr #5 comdat align 2 {
entry:
  %this.addr = alloca ptr, align 8
  store ptr %this, ptr %this.addr, align 8
  ret void
}

; Function Attrs: mustprogress nounwind uwtable
define linkonce_odr void @_ZN5arrow2io8WritableC2Ev(ptr noundef nonnull align 8 dereferenceable(8) %this) unnamed_addr #5 comdat align 2 {
entry:
  %this.addr = alloca ptr, align 8
  store ptr %this, ptr %this.addr, align 8
  %this1 = load ptr, ptr %this.addr, align 8
  store ptr getelementptr inbounds ({ [7 x ptr] }, ptr @_ZTVN5arrow2io8WritableE, i32 0, i32 0, i32 2), ptr %this1, align 8
  ret void
}

; Function Attrs: mustprogress nounwind uwtable
define linkonce_odr void @_ZN5arrow2io12OutputStreamD2Ev(ptr noundef nonnull align 8 dereferenceable(8) %this, ptr noundef %vtt) unnamed_addr #5 comdat align 2 {
entry:
  %this.addr = alloca ptr, align 8
  %vtt.addr = alloca ptr, align 8
  store ptr %this, ptr %this.addr, align 8
  store ptr %vtt, ptr %vtt.addr, align 8
  %this1 = load ptr, ptr %this.addr, align 8
  call void @_ZN5arrow2io8WritableD2Ev(ptr noundef nonnull align 8 dereferenceable(8) %this1) #3
  ret void
}

; Function Attrs: mustprogress nounwind uwtable
define linkonce_odr void @_ZN5arrow2io13FileInterface8set_modeENS0_8FileMode4typeE(ptr noundef nonnull align 8 dereferenceable(28) %this, i32 noundef %mode) #5 comdat align 2 {
entry:
  %this.addr = alloca ptr, align 8
  %mode.addr = alloca i32, align 4
  store ptr %this, ptr %this.addr, align 8
  store i32 %mode, ptr %mode.addr, align 4
  %this1 = load ptr, ptr %this.addr, align 8
  %0 = load i32, ptr %mode.addr, align 4
  %mode_ = getelementptr inbounds %"class.arrow::io::FileInterface", ptr %this1, i32 0, i32 2
  store i32 %0, ptr %mode_, align 8
  ret void
}

; Function Attrs: mustprogress nounwind uwtable
define linkonce_odr void @_ZN5arrow2io12OutputStreamC2Ev(ptr noundef nonnull align 8 dereferenceable(8) %this, ptr noundef %vtt) unnamed_addr #5 comdat align 2 {
entry:
  %this.addr = alloca ptr, align 8
  %vtt.addr = alloca ptr, align 8
  store ptr %this, ptr %this.addr, align 8
  store ptr %vtt, ptr %vtt.addr, align 8
  %this1 = load ptr, ptr %this.addr, align 8
  %vtt2 = load ptr, ptr %vtt.addr, align 8
  call void @_ZN5arrow2io8WritableC2Ev(ptr noundef nonnull align 8 dereferenceable(8) %this1) #3
  %0 = load ptr, ptr %vtt2, align 8
  store ptr %0, ptr %this1, align 8
  %1 = getelementptr inbounds ptr, ptr %vtt2, i64 1
  %2 = load ptr, ptr %1, align 8
  %vtable = load ptr, ptr %this1, align 8
  %vbase.offset.ptr = getelementptr i8, ptr %vtable, i64 -24
  %vbase.offset = load i64, ptr %vbase.offset.ptr, align 8
  %add.ptr = getelementptr inbounds i8, ptr %this1, i64 %vbase.offset
  store ptr %2, ptr %add.ptr, align 8
  ret void
}

; Function Attrs: mustprogress uwtable
define void @_ZN5arrow2io12StdoutStreamC2Ev(ptr noundef nonnull align 8 dereferenceable(16) %this, ptr noundef %vtt) unnamed_addr #4 align 2 personality ptr @__gxx_personality_v0 {
entry:
  %this.addr = alloca ptr, align 8
  %vtt.addr = alloca ptr, align 8
  %exn.slot = alloca ptr, align 8
  %ehselector.slot = alloca i32, align 4
  store ptr %this, ptr %this.addr, align 8
  store ptr %vtt, ptr %vtt.addr, align 8
  %this1 = load ptr, ptr %this.addr, align 8
  %vtt2 = load ptr, ptr %vtt.addr, align 8
  %0 = getelementptr inbounds ptr, ptr %vtt2, i64 1
  call void @_ZN5arrow2io12OutputStreamC2Ev(ptr noundef nonnull align 8 dereferenceable(8) %this1, ptr noundef %0) #3
  %1 = load ptr, ptr %vtt2, align 8
  store ptr %1, ptr %this1, align 8
  %2 = getelementptr inbounds ptr, ptr %vtt2, i64 3
  %3 = load ptr, ptr %2, align 8
  %vtable = load ptr, ptr %this1, align 8
  %vbase.offset.ptr = getelementptr i8, ptr %vtable, i64 -24
  %vbase.offset = load i64, ptr %vbase.offset.ptr, align 8
  %add.ptr = getelementptr inbounds i8, ptr %this1, i64 %vbase.offset
  store ptr %3, ptr %add.ptr, align 8
  %pos_ = getelementptr inbounds %"class.arrow::io::StdoutStream", ptr %this1, i32 0, i32 1
  store i64 0, ptr %pos_, align 8
  %vtable3 = load ptr, ptr %this1, align 8
  %vbase.offset.ptr4 = getelementptr i8, ptr %vtable3, i64 -24
  %vbase.offset5 = load i64, ptr %vbase.offset.ptr4, align 8
  %add.ptr6 = getelementptr inbounds i8, ptr %this1, i64 %vbase.offset5
  invoke void @_ZN5arrow2io13FileInterface8set_modeENS0_8FileMode4typeE(ptr noundef nonnull align 8 dereferenceable(28) %add.ptr6, i32 noundef 1)
          to label %invoke.cont unwind label %lpad

invoke.cont:                                      ; preds = %entry
  ret void

lpad:                                             ; preds = %entry
  %4 = landingpad { ptr, i32 }
          cleanup
  %5 = extractvalue { ptr, i32 } %4, 0
  store ptr %5, ptr %exn.slot, align 8
  %6 = extractvalue { ptr, i32 } %4, 1
  store i32 %6, ptr %ehselector.slot, align 4
  %7 = getelementptr inbounds ptr, ptr %vtt2, i64 1
  call void @_ZN5arrow2io12OutputStreamD2Ev(ptr noundef nonnull align 8 dereferenceable(8) %this1, ptr noundef %7) #3
  br label %eh.resume

eh.resume:                                        ; preds = %lpad
  %exn = load ptr, ptr %exn.slot, align 8
  %sel = load i32, ptr %ehselector.slot, align 4
  %lpad.val = insertvalue { ptr, i32 } poison, ptr %exn, 0
  %lpad.val7 = insertvalue { ptr, i32 } %lpad.val, i32 %sel, 1
  resume { ptr, i32 } %lpad.val7
}